target datalayout = "e-m:e-p270:32:32-p271:32:32-p272:64:64-i64:64-i128:128-f80:128-n8:16:32:64-S128"
target triple = "x86_64-pc-linux-gnu"

%"class.testing::internal::linked_ptr_internal" = type { ptr }
%"class.testing::internal::ParamGenerator.30" = type { %"class.testing::internal::linked_ptr.31" }
%"class.testing::internal::linked_ptr.31" = type { ptr, %"class.testing::internal::linked_ptr_internal" }
%"class.testing::internal::CartesianProductHolder2" = type { %"class.testing::internal::ValueArray8", %"class.testing::internal::ValueArray2" }
%"class.testing::internal::ValueArray8" = type { ptr, ptr, ptr, ptr, ptr, ptr, ptr, ptr }
%"class.testing::internal::ValueArray2" = type { ptr, ptr }

@.str = private unnamed_addr constant [14 x i8] c"5_qrcodes.png\00", align 1
@.str.24 = private unnamed_addr constant [12 x i8] c"aruco_based\00", align 1
@.str.122 = private unnamed_addr constant [14 x i8] c"2_qrcodes.png\00", align 1
@.str.123 = private unnamed_addr constant [20 x i8] c"3_close_qrcodes.png\00", align 1
@.str.124 = private unnamed_addr constant [14 x i8] c"3_qrcodes.png\00", align 1
@.str.125 = private unnamed_addr constant [14 x i8] c"4_qrcodes.png\00", align 1
@.str.126 = private unnamed_addr constant [14 x i8] c"6_qrcodes.png\00", align 1
@.str.127 = private unnamed_addr constant [14 x i8] c"7_qrcodes.png\00", align 1
@.str.128 = private unnamed_addr constant [20 x i8] c"8_close_qrcodes.png\00", align 1
@.str.129 = private unnamed_addr constant [15 x i8] c"contours_based\00", align 1

; Function Attrs: mustprogress nounwind uwtable
define linkonce_odr hidden void @_ZN7testing8internal11ValueArray2IPKcS3_EC2ERKS4_(ptr noundef nonnull align 8 dereferenceable(16) %0, ptr noundef nonnull align 8 dereferenceable(16) %1) unnamed_addr #7 comdat align 2 {
  %3 = alloca ptr, align 8
  %4 = alloca ptr, align 8
  store ptr %0, ptr %3, align 8, !tbaa !578
  store ptr %1, ptr %4, align 8, !tbaa !578
  %5 = load ptr, ptr %3, align 8
  %6 = getelementptr inbounds nuw %"class.testing::internal::ValueArray2", ptr %5, i32 0, i32 0
  %7 = load ptr, ptr %4, align 8, !tbaa !578
  %8 = getelementptr inbounds nuw %"class.testing::internal::ValueArray2", ptr %7, i32 0, i32 0
  %9 = load ptr, ptr %8, align 8, !tbaa !591
  store ptr %9, ptr %6, align 8, !tbaa !591
  %10 = getelementptr inbounds nuw %"class.testing::internal::ValueArray2", ptr %5, i32 0, i32 1
  %11 = load ptr, ptr %4, align 8, !tbaa !578
  %12 = getelementptr inbounds nuw %"class.testing::internal::ValueArray2", ptr %11, i32 0, i32 1
  %13 = load ptr, ptr %12, align 8, !tbaa !593
  store ptr %13, ptr %10, align 8, !tbaa !593
  ret void
}

; Function Attrs: mustprogress nounwind uwtable
define linkonce_odr hidden void @_ZN7testing8internal11ValueArray8IPKcS3_S3_S3_S3_S3_S3_S3_EC2ERKS4_(ptr noundef nonnull align 8 dereferenceable(64) %0, ptr noundef nonnull align 8 dereferenceable(64) %1) unnamed_addr #7 comdat align 2 {
  %3 = alloca ptr, align 8
  %4 = alloca ptr, align 8
  store ptr %0, ptr %3, align 8, !tbaa !576
  store ptr %1, ptr %4, align 8, !tbaa !576
  %5 = load ptr, ptr %3, align 8
  %6 = getelementptr inbounds nuw %"class.testing::internal::ValueArray8", ptr %5, i32 0, i32 0
  %7 = load ptr, ptr %4, align 8, !tbaa !576
  %8 = getelementptr inbounds nuw %"class.testing::internal::ValueArray8", ptr %7, i32 0, i32 0
  %9 = load ptr, ptr %8, align 8, !tbaa !582
  store ptr %9, ptr %6, align 8, !tbaa !582
  %10 = getelementptr inbounds nuw %"class.testing::internal::ValueArray8", ptr %5, i32 0, i32 1
  %11 = load ptr, ptr %4, align 8, !tbaa !576
  %12 = getelementptr inbounds nuw %"class.testing::internal::ValueArray8", ptr %11, i32 0, i32 1
  %13 = load ptr, ptr %12, align 8, !tbaa !584
  store ptr %13, ptr %10, align 8, !tbaa !584
  %14 = getelementptr inbounds nuw %"class.testing::internal::ValueArray8", ptr %5, i32 0, i32 2
  %15 = load ptr, ptr %4, align 8, !tbaa !576
  %16 = getelementptr inbounds nuw %"class.testing::internal::ValueArray8", ptr %15, i32 0, i32 2
  %17 = load ptr, ptr %16, align 8, !tbaa !585
  store ptr %17, ptr %14, align 8, !tbaa !585
  %18 = getelementptr inbounds nuw %"class.testing::internal::ValueArray8", ptr %5, i32 0, i32 3
  %19 = load ptr, ptr %4, align 8, !tbaa !576
  %20 = getelementptr inbounds nuw %"class.testing::internal::ValueArray8", ptr %19, i32 0, i32 3
  %21 = load ptr, ptr %20, align 8, !tbaa !586
  store ptr %21, ptr %18, align 8, !tbaa !586
  %22 = getelementptr inbounds nuw %"class.testing::internal::ValueArray8", ptr %5, i32 0, i32 4
  %23 = load ptr, ptr %4, align 8, !tbaa !576
  %24 = getelementptr inbounds nuw %"class.testing::internal::ValueArray8", ptr %23, i32 0, i32 4
  %25 = load ptr, ptr %24, align 8, !tbaa !587
  store ptr %25, ptr %22, align 8, !tbaa !587
  %26 = getelementptr inbounds nuw %"class.testing::internal::ValueArray8", ptr %5, i32 0, i32 5
  %27 = load ptr, ptr %4, align 8, !tbaa !576
  %28 = getelementptr inbounds nuw %"class.testing::internal::ValueArray8", ptr %27, i32 0, i32 5
  %29 = load ptr, ptr %28, align 8, !tbaa !588
  store ptr %29, ptr %26, align 8, !tbaa !588
  %30 = getelementptr inbounds nuw %"class.testing::internal::ValueArray8", ptr %5, i32 0, i32 6
  %31 = load ptr, ptr %4, align 8, !tbaa !576
  %32 = getelementptr inbounds nuw %"class.testing::internal::ValueArray8", ptr %31, i32 0, i32 6
  %33 = load ptr, ptr %32, align 8, !tbaa !589
  store ptr %33, ptr %30, align 8, !tbaa !589
  %34 = getelementptr inbounds nuw %"class.testing::internal::ValueArray8", ptr %5, i32 0, i32 7
  %35 = load ptr, ptr %4, align 8, !tbaa !576
  %36 = getelementptr inbounds nuw %"class.testing::internal::ValueArray8", ptr %35, i32 0, i32 7
  %37 = load ptr, ptr %36, align 8, !tbaa !590
  store ptr %37, ptr %34, align 8, !tbaa !590
  ret void
}

; Function Attrs: mustprogress uwtable
define linkonce_odr hidden void @_ZN7testing8internal23CartesianProductHolder2INS0_11ValueArray8IPKcS4_S4_S4_S4_S4_S4_S4_EENS0_11ValueArray2IS4_S4_EEEC2ERKS5_RKS7_(ptr noundef nonnull align 8 dereferenceable(80) %0, ptr noundef nonnull align 8 dereferenceable(64) %1, ptr noundef nonnull align 8 dereferenceable(16) %2) unnamed_addr #6 comdat align 2 {
  %4 = alloca ptr, align 8
  %5 = alloca ptr, align 8
  %6 = alloca ptr, align 8
  store ptr %0, ptr %4, align 8, !tbaa !580
  store ptr %1, ptr %5, align 8, !tbaa !576
  store ptr %2, ptr %6, align 8, !tbaa !578
  %7 = load ptr, ptr %4, align 8
  %8 = getelementptr inbounds nuw %"class.testing::internal::CartesianProductHolder2", ptr %7, i32 0, i32 0
  %9 = load ptr, ptr %5, align 8, !tbaa !576
  call void @_ZN7testing8internal11ValueArray8IPKcS3_S3_S3_S3_S3_S3_S3_EC2ERKS4_(ptr noundef nonnull align 8 dereferenceable(64) %8, ptr noundef nonnull align 8 dereferenceable(64) %9)
  %10 = getelementptr inbounds nuw %"class.testing::internal::CartesianProductHolder2", ptr %7, i32 0, i32 1
  %11 = load ptr, ptr %6, align 8, !tbaa !578
  call void @_ZN7testing8internal11ValueArray2IPKcS3_EC2ERKS4_(ptr noundef nonnull align 8 dereferenceable(16) %10, ptr noundef nonnull align 8 dereferenceable(16) %11)
  ret void
}

; Function Attrs: mustprogress nounwind uwtable
define linkonce_odr hidden void @_ZN7testing8internal11ValueArray2IPKcS3_EC2ES3_S3_(ptr noundef nonnull align 8 dereferenceable(16) %0, ptr noundef %1, ptr noundef %2) unnamed_addr #7 comdat align 2 {
  %4 = alloca ptr, align 8
  %5 = alloca ptr, align 8
  %6 = alloca ptr, align 8
  store ptr %0, ptr %4, align 8, !tbaa !578
  store ptr %1, ptr %5, align 8, !tbaa !20
  store ptr %2, ptr %6, align 8, !tbaa !20
  %7 = load ptr, ptr %4, align 8
  %8 = getelementptr inbounds nuw %"class.testing::internal::ValueArray2", ptr %7, i32 0, i32 0
  %9 = load ptr, ptr %5, align 8, !tbaa !20
  store ptr %9, ptr %8, align 8, !tbaa !591
  %10 = getelementptr inbounds nuw %"class.testing::internal::ValueArray2", ptr %7, i32 0, i32 1
  %11 = load ptr, ptr %6, align 8, !tbaa !20
  store ptr %11, ptr %10, align 8, !tbaa !593
  ret void
}

; Function Attrs: mustprogress nounwind uwtable
define linkonce_odr hidden void @_ZN7testing8internal11ValueArray8IPKcS3_S3_S3_S3_S3_S3_S3_EC2ES3_S3_S3_S3_S3_S3_S3_S3_(ptr noundef nonnull align 8 dereferenceable(64) %0, ptr noundef %1, ptr noundef %2, ptr noundef %3, ptr noundef %4, ptr noundef %5, ptr noundef %6, ptr noundef %7, ptr noundef %8) unnamed_addr #7 comdat align 2 {
  %10 = alloca ptr, align 8
  %11 = alloca ptr, align 8
  %12 = alloca ptr, align 8
  %13 = alloca ptr, align 8
  %14 = alloca ptr, align 8
  %15 = alloca ptr, align 8
  %16 = alloca ptr, align 8
  %17 = alloca ptr, align 8
  %18 = alloca ptr, align 8
  store ptr %0, ptr %10, align 8, !tbaa !576
  store ptr %1, ptr %11, align 8, !tbaa !20
  store ptr %2, ptr %12, align 8, !tbaa !20
  store ptr %3, ptr %13, align 8, !tbaa !20
  store ptr %4, ptr %14, align 8, !tbaa !20
  store ptr %5, ptr %15, align 8, !tbaa !20
  store ptr %6, ptr %16, align 8, !tbaa !20
  store ptr %7, ptr %17, align 8, !tbaa !20
  store ptr %8, ptr %18, align 8, !tbaa !20
  %19 = load ptr, ptr %10, align 8
  %20 = getelementptr inbounds nuw %"class.testing::internal::ValueArray8", ptr %19, i32 0, i32 0
  %21 = load ptr, ptr %11, align 8, !tbaa !20
  store ptr %21, ptr %20, align 8, !tbaa !582
  %22 = getelementptr inbounds nuw %"class.testing::internal::ValueArray8", ptr %19, i32 0, i32 1
  %23 = load ptr, ptr %12, align 8, !tbaa !20
  store ptr %23, ptr %22, align 8, !tbaa !584
  %24 = getelementptr inbounds nuw %"class.testing::internal::ValueArray8", ptr %19, i32 0, i32 2
  %25 = load ptr, ptr %13, align 8, !tbaa !20
  store ptr %25, ptr %24, align 8, !tbaa !585
  %26 = getelementptr inbounds nuw %"class.testing::internal::ValueArray8", ptr %19, i32 0, i32 3
  %27 = load ptr, ptr %14, align 8, !tbaa !20
  store ptr %27, ptr %26, align 8, !tbaa !586
  %28 = getelementptr inbounds nuw %"class.testing::internal::ValueArray8", ptr %19, i32 0, i32 4
  %29 = load ptr, ptr %15, align 8, !tbaa !20
  store ptr %29, ptr %28, align 8, !tbaa !587
  %30 = getelementptr inbounds nuw %"class.testing::internal::ValueArray8", ptr %19, i32 0, i32 5
  %31 = load ptr, ptr %16, align 8, !tbaa !20
  store ptr %31, ptr %30, align 8, !tbaa !588
  %32 = getelementptr inbounds nuw %"class.testing::internal::ValueArray8", ptr %19, i32 0, i32 6
  %33 = load ptr, ptr %17, align 8, !tbaa !20
  store ptr %33, ptr %32, align 8, !tbaa !589
  %34 = getelementptr inbounds nuw %"class.testing::internal::ValueArray8", ptr %19, i32 0, i32 7
  %35 = load ptr, ptr %18, align 8, !tbaa !20
  store ptr %35, ptr %34, align 8, !tbaa !590
  ret void
}

; Function Attrs: mustprogress uwtable
define linkonce_odr hidden void @_ZN7testing7CombineINS_8internal11ValueArray8IPKcS4_S4_S4_S4_S4_S4_S4_EENS1_11ValueArray2IS4_S4_EEEENS1_23CartesianProductHolder2IT_T0_EERKS9_RKSA_(ptr dead_on_unwind noalias writable sret(%"class.testing::internal::CartesianProductHolder2") align 8 %0, ptr noundef nonnull align 8 dereferenceable(64) %1, ptr noundef nonnull align 8 dereferenceable(16) %2) #6 comdat {
  %4 = alloca ptr, align 8
  %5 = alloca ptr, align 8
  %6 = alloca ptr, align 8
  store ptr %0, ptr %4, align 8
  store ptr %1, ptr %5, align 8, !tbaa !576
  store ptr %2, ptr %6, align 8, !tbaa !578
  %7 = load ptr, ptr %5, align 8, !tbaa !576
  %8 = load ptr, ptr %6, align 8, !tbaa !578
  call void @_ZN7testing8internal23CartesianProductHolder2INS0_11ValueArray8IPKcS4_S4_S4_S4_S4_S4_S4_EENS0_11ValueArray2IS4_S4_EEEC2ERKS5_RKS7_(ptr noundef nonnull align 8 dereferenceable(80) %0, ptr noundef nonnull align 8 dereferenceable(64) %7, ptr noundef nonnull align 8 dereferenceable(16) %8)
  ret void
}

; Function Attrs: mustprogress uwtable
define linkonce_odr hidden void @_ZN7testing6ValuesIPKcS2_EENS_8internal11ValueArray2IT_T0_EES5_S6_(ptr dead_on_unwind noalias writable sret(%"class.testing::internal::ValueArray2") align 8 %0, ptr noundef %1, ptr noundef %2) #6 comdat {
  %4 = alloca ptr, align 8
  %5 = alloca ptr, align 8
  %6 = alloca ptr, align 8
  store ptr %0, ptr %4, align 8
  store ptr %1, ptr %5, align 8, !tbaa !20
  store ptr %2, ptr %6, align 8, !tbaa !20
  %7 = load ptr, ptr %5, align 8, !tbaa !20
  %8 = load ptr, ptr %6, align 8, !tbaa !20
  call void @_ZN7testing8internal11ValueArray2IPKcS3_EC2ES3_S3_(ptr noundef nonnull align 8 dereferenceable(16) %0, ptr noundef %7, ptr noundef %8)
  ret void
}

; Function Attrs: mustprogress uwtable
define linkonce_odr hidden void @_ZN7testing6ValuesIPKcS2_S2_S2_S2_S2_S2_S2_EENS_8internal11ValueArray8IT_T0_T1_T2_T3_T4_T5_T6_EES5_S6_S7_S8_S9_SA_SB_SC_(ptr dead_on_unwind noalias writable sret(%"class.testing::internal::ValueArray8") align 8 %0, ptr noundef %1, ptr noundef %2, ptr noundef %3, ptr noundef %4, ptr noundef %5, ptr noundef %6, ptr noundef %7, ptr noundef %8) #6 comdat {
  %10 = alloca ptr, align 8
  %11 = alloca ptr, align 8
  %12 = alloca ptr, align 8
  %13 = alloca ptr, align 8
  %14 = alloca ptr, align 8
  %15 = alloca ptr, align 8
  %16 = alloca ptr, align 8
  %17 = alloca ptr, align 8
  %18 = alloca ptr, align 8
  store ptr %0, ptr %10, align 8
  store ptr %1, ptr %11, align 8, !tbaa !20
  store ptr %2, ptr %12, align 8, !tbaa !20
  store ptr %3, ptr %13, align 8, !tbaa !20
  store ptr %4, ptr %14, align 8, !tbaa !20
  store ptr %5, ptr %15, align 8, !tbaa !20
  store ptr %6, ptr %16, align 8, !tbaa !20
  store ptr %7, ptr %17, align 8, !tbaa !20
  store ptr %8, ptr %18, align 8, !tbaa !20
  %19 = load ptr, ptr %11, align 8, !tbaa !20
  %20 = load ptr, ptr %12, align 8, !tbaa !20
  %21 = load ptr, ptr %13, align 8, !tbaa !20
  %22 = load ptr, ptr %14, align 8, !tbaa !20
  %23 = load ptr, ptr %15, align 8, !tbaa !20
  %24 = load ptr, ptr %16, align 8, !tbaa !20
  %25 = load ptr, ptr %17, align 8, !tbaa !20
  %26 = load ptr, ptr %18, align 8, !tbaa !20
  call void @_ZN7testing8internal11ValueArray8IPKcS3_S3_S3_S3_S3_S3_S3_EC2ES3_S3_S3_S3_S3_S3_S3_S3_(ptr noundef nonnull align 8 dereferenceable(64) %0, ptr noundef %19, ptr noundef %20, ptr noundef %21, ptr noundef %22, ptr noundef %23, ptr noundef %24, ptr noundef %25, ptr noundef %26)
  ret void
}

; Function Attrs: mustprogress uwtable
define internal void @_ZN11opencv_test12_GLOBAL__N_148gtest_Perf_Objdetect_QRCode_Multi_EvalGenerator_B5cxx11Ev(ptr dead_on_unwind noalias writable sret(%"class.testing::internal::ParamGenerator.30") align 8 %0) #6 {
  %2 = alloca ptr, align 8
  %3 = alloca %"class.testing::internal::CartesianProductHolder2", align 8
  %4 = alloca %"class.testing::internal::ValueArray8", align 8
  %5 = alloca %"class.testing::internal::ValueArray2", align 8
  store ptr %0, ptr %2, align 8
  call void @llvm.lifetime.start.p0(i64 80, ptr %3) #3
  call void @llvm.lifetime.start.p0(i64 64, ptr %4) #3
  call void @_ZN7testing6ValuesIPKcS2_S2_S2_S2_S2_S2_S2_EENS_8internal11ValueArray8IT_T0_T1_T2_T3_T4_T5_T6_EES5_S6_S7_S8_S9_SA_SB_SC_(ptr dead_on_unwind writable sret(%"class.testing::internal::ValueArray8") align 8 %4, ptr noundef @.str.122, ptr noundef @.str.123, ptr noundef @.str.124, ptr noundef @.str.125, ptr noundef @.str, ptr noundef @.str.126, ptr noundef @.str.127, ptr noundef @.str.128)
  call void @llvm.lifetime.start.p0(i64 16, ptr %5) #3
  call void @_ZN7testing6ValuesIPKcS2_EENS_8internal11ValueArray2IT_T0_EES5_S6_(ptr dead_on_unwind writable sret(%"class.testing::internal::ValueArray2") align 8 %5, ptr noundef @.str.129, ptr noundef @.str.24)
  call void @_ZN7testing7CombineINS_8internal11ValueArray8IPKcS4_S4_S4_S4_S4_S4_S4_EENS1_11ValueArray2IS4_S4_EEEENS1_23CartesianProductHolder2IT_T0_EERKS9_RKSA_(ptr dead_on_unwind writable sret(%"class.testing::internal::CartesianProductHolder2") align 8 %3, ptr noundef nonnull align 8 dereferenceable(64) %4, ptr noundef nonnull align 8 dereferenceable(16) %5)
  call void @_ZNK7testing8internal23CartesianProductHolder2INS0_11ValueArray8IPKcS4_S4_S4_S4_S4_S4_S4_EENS0_11ValueArray2IS4_S4_EEEcvNS0_14ParamGeneratorISt5tupleIJT_T0_EEEEINSt7__cxx1112basic_stringIcSt11char_traitsIcESaIcEEESL_EEv(ptr dead_on_unwind writable sret(%"class.testing::internal::ParamGenerator.30") align 8 %0, ptr noundef nonnull align 8 dereferenceable(80) %3)
  call void @llvm.lifetime.end.p0(i64 16, ptr %5) #3
  call void @llvm.lifetime.end.p0(i64 64, ptr %4) #3
  call void @llvm.lifetime.end.p0(i64 80, ptr %3) #3
  ret void
}