; Function Attrs: mustprogress uwtable
define internal void @_ZN11opencv_test12_GLOBAL__N_148gtest_Perf_Objdetect_QRCode_Multi_EvalGenerator_B5cxx11Ev(ptr dead_on_unwind noalias writable sret(%"class.testing::internal::ParamGenerator.30") align 8 %0) #4 {
  %2 = alloca %"class.testing::internal::CartesianProductHolder2", align 8
  call void @llvm.lifetime.start.p0(i64 80, ptr nonnull %2) #33
  store ptr @.str.122, ptr %2, align 8, !tbaa !83, !alias.scope !85
  %3 = getelementptr inbounds nuw i8, ptr %2, i64 8
  store ptr @.str.123, ptr %3, align 8, !tbaa !88, !alias.scope !85
  %4 = getelementptr inbounds nuw i8, ptr %2, i64 16
  store ptr @.str.124, ptr %4, align 8, !tbaa !89, !alias.scope !85
  %5 = getelementptr inbounds nuw i8, ptr %2, i64 24
  store ptr @.str.125, ptr %5, align 8, !tbaa !90, !alias.scope !85
  %6 = getelementptr inbounds nuw i8, ptr %2, i64 32
  store ptr @.str, ptr %6, align 8, !tbaa !91, !alias.scope !85
  %7 = getelementptr inbounds nuw i8, ptr %2, i64 40
  store ptr @.str.126, ptr %7, align 8, !tbaa !92, !alias.scope !85
  %8 = getelementptr inbounds nuw i8, ptr %2, i64 48
  store ptr @.str.127, ptr %8, align 8, !tbaa !93, !alias.scope !85
  %9 = getelementptr inbounds nuw i8, ptr %2, i64 56
  store ptr @.str.128, ptr %9, align 8, !tbaa !94, !alias.scope !85
  %10 = getelementptr inbounds nuw i8, ptr %2, i64 64
  store ptr @.str.129, ptr %10, align 8, !tbaa !95, !alias.scope !85
  %11 = getelementptr inbounds nuw i8, ptr %2, i64 72
  store ptr @.str.24, ptr %11, align 8, !tbaa !97, !alias.scope !85
  call void @_ZNK7testing8internal23CartesianProductHolder2INS0_11ValueArray8IPKcS4_S4_S4_S4_S4_S4_S4_EENS0_11ValueArray2IS4_S4_EEEcvNS0_14ParamGeneratorISt5tupleIJT_T0_EEEEINSt7__cxx1112basic_stringIcSt11char_traitsIcESaIcEEESL_EEv(ptr dead_on_unwind writable sret(%"class.testing::internal::ParamGenerator.30") align 8 %0, ptr noundef nonnull align 8 dereferenceable(80) %2)
  call void @llvm.lifetime.end.p0(i64 80, ptr nonnull %2) #33
  ret void
}